; Function Attrs: mustprogress nounwind uwtable
define dso_local void @_ZN4llvm3vfs13YAMLVFSWriter19addDirectoryMappingENS_9StringRefES2_(ptr noundef nonnull align 8 dereferenceable(64) %0, ptr %1, i64 %2, ptr %3, i64 %4) local_unnamed_addr #0 align 2 {
  %6 = alloca %"class.llvm::StringRef", align 8
  %7 = alloca %"class.llvm::StringRef", align 8
  %8 = alloca i8, align 1
  call void @llvm.lifetime.start.p0(i64 16, ptr nonnull %6)
  call void @llvm.lifetime.start.p0(i64 16, ptr nonnull %7)
  call void @llvm.lifetime.start.p0(i64 1, ptr nonnull %8)
  store ptr %1, ptr %6, align 8
  %9 = getelementptr inbounds nuw i8, ptr %6, i64 8
  store i64 %2, ptr %9, align 8
  store ptr %3, ptr %7, align 8
  %10 = getelementptr inbounds nuw i8, ptr %7, i64 8
  store i64 %4, ptr %10, align 8
  store i8 1, ptr %8, align 1
  %11 = getelementptr inbounds nuw i8, ptr %0, i64 8
  %12 = load ptr, ptr %11, align 8
  %13 = getelementptr inbounds nuw i8, ptr %0, i64 16
  %14 = load ptr, ptr %13, align 8
  %.not.i.i = icmp eq ptr %12, %14
  br i1 %.not.i.i, label %18, label %15

15:                                               ; preds = %5
  call void @_ZN4llvm3vfs12YAMLVFSEntryC2IRNS_9StringRefES4_EEOT_OT0_b(ptr noundef nonnull align 8 dereferenceable(65) %12, ptr noundef nonnull align 8 dereferenceable(16) %6, ptr noundef nonnull align 8 dereferenceable(16) %7, i1 noundef zeroext true)
  %16 = load ptr, ptr %11, align 8
  %17 = getelementptr inbounds i8, ptr %16, i64 72
  store ptr %17, ptr %11, align 8
  br label %_ZN4llvm3vfs13YAMLVFSWriter8addEntryENS_9StringRefES2_b.exit

18:                                               ; preds = %5
  call void @_ZNSt6vectorIN4llvm3vfs12YAMLVFSEntryESaIS2_EE17_M_realloc_insertIJRNS0_9StringRefES7_RbEEEvN9__gnu_cxx17__normal_iteratorIPS2_S4_EEDpOT_(ptr noundef nonnull align 8 dereferenceable(24) %0, ptr %12, ptr noundef nonnull align 8 dereferenceable(16) %6, ptr noundef nonnull align 8 dereferenceable(16) %7, ptr noundef nonnull align 1 dereferenceable(1) %8)
  br label %_ZN4llvm3vfs13YAMLVFSWriter8addEntryENS_9StringRefES2_b.exit

_ZN4llvm3vfs13YAMLVFSWriter8addEntryENS_9StringRefES2_b.exit: ; preds = %15, %18
  call void @llvm.lifetime.end.p0(i64 16, ptr nonnull %6)
  call void @llvm.lifetime.end.p0(i64 16, ptr nonnull %7)
  call void @llvm.lifetime.end.p0(i64 1, ptr nonnull %8)
  ret void
}